; Function Attrs: mustprogress nofree norecurse nosync nounwind willreturn memory(read, inaccessiblemem: none) uwtable
define hidden noundef i64 @_ZNK12mpff_manager10get_uint64ERK4mpff(ptr noundef nonnull readonly align 8 captures(none) dereferenceable(89) %0, ptr noundef nonnull readonly align 4 captures(none) dereferenceable(8) %1) local_unnamed_addr #10 align 2 {
  %3 = load i32, ptr %1, align 4
  %4 = icmp ult i32 %3, 2
  br i1 %4, label %21, label %5

5:                                                ; preds = %2
  %6 = getelementptr inbounds nuw i8, ptr %1, i64 4
  %7 = load i32, ptr %6, align 4, !tbaa !35
  %8 = load i32, ptr %0, align 8, !tbaa !13
  %.neg8 = mul i32 %8, -32
  %reass.sub = sub i32 %.neg8, %7
  %.neg7 = add i32 %reass.sub, 64
  %9 = getelementptr inbounds nuw i8, ptr %0, i64 8
  %10 = load ptr, ptr %9, align 8, !tbaa !3
  %11 = lshr i32 %3, 1
  %12 = mul i32 %8, %11
  %13 = zext i32 %12 to i64
  %14 = getelementptr inbounds nuw i32, ptr %10, i64 %13
  %15 = add i32 %8, -2
  %16 = zext i32 %15 to i64
  %17 = getelementptr inbounds nuw i32, ptr %14, i64 %16
  %18 = load i64, ptr %17, align 8, !tbaa !42
  %19 = zext nneg i32 %.neg7 to i64
  %20 = lshr i64 %18, %19
  br label %21

21:                                               ; preds = %2, %5
  %.0 = phi i64 [ %20, %5 ], [ 0, %2 ]
  ret i64 %.0
}